
test:     file format elf32-i386


Disassembly of section .text:

00000010 <_start>:
  10:	8c c8                	mov    %cs,%ax
  12:	8e d8                	mov    %ax,%ds
  14:	8e c0                	mov    %ax,%es
  16:	8e d0                	mov    %ax,%ss
  18:	b8 60 00             	mov    $0x60,%ax
  1b:	89 c4                	mov    %ax,%sp
  1d:	90                   	nop
  1e:	90                   	nop
  1f:	90                   	nop
  20:	90                   	nop
  21:	90                   	nop
  22:	90                   	nop
  23:	90                   	nop
  24:	90                   	nop
  25:	90                   	nop
  26:	90                   	nop
  27:	90                   	nop
  28:	90                   	nop
  29:	90                   	nop
  2a:	90                   	nop
  2b:	90                   	nop
  2c:	90                   	nop
  2d:	90                   	nop
  2e:	90                   	nop
  2f:	90                   	nop
  30:	90                   	nop
  31:	90                   	nop
  32:	90                   	nop
  33:	90                   	nop
  34:	90                   	nop
  35:	90                   	nop
  36:	90                   	nop
  37:	90                   	nop
  38:	90                   	nop
  39:	90                   	nop
  3a:	90                   	nop
  3b:	90                   	nop
  3c:	90                   	nop
  3d:	90                   	nop
  3e:	90                   	nop
  3f:	90                   	nop
  40:	90                   	nop
  41:	90                   	nop
  42:	90                   	nop
  43:	90                   	nop
  44:	90                   	nop
  45:	90                   	nop
  46:	90                   	nop
  47:	90                   	nop
  48:	90                   	nop
  49:	90                   	nop
  4a:	90                   	nop
  4b:	90                   	nop
  4c:	90                   	nop
  4d:	90                   	nop
  4e:	90                   	nop
  4f:	90                   	nop
  50:	90                   	nop
  51:	90                   	nop
  52:	90                   	nop
  53:	90                   	nop
  54:	90                   	nop
  55:	90                   	nop
  56:	90                   	nop
  57:	90                   	nop
  58:	90                   	nop
  59:	90                   	nop
  5a:	90                   	nop
  5b:	90                   	nop
  5c:	90                   	nop
  5d:	90                   	nop
  5e:	90                   	nop
  5f:	90                   	nop

00000060 <stack1>:
  60:	8c c8                	mov    %cs,%ax
  62:	8e d8                	mov    %ax,%ds
  64:	8e c0                	mov    %ax,%es
  66:	8e d0                	mov    %ax,%ss
  68:	b8 b0 00             	mov    $0xb0,%ax
  6b:	89 c4                	mov    %ax,%sp
  6d:	34 34                	xor    $0x34,%al
  6f:	34 34                	xor    $0x34,%al
  71:	34 34                	xor    $0x34,%al
  73:	34 34                	xor    $0x34,%al
  75:	34 34                	xor    $0x34,%al
  77:	34 34                	xor    $0x34,%al
  79:	34 34                	xor    $0x34,%al
  7b:	34 34                	xor    $0x34,%al
  7d:	34 34                	xor    $0x34,%al
  7f:	34 34                	xor    $0x34,%al
  81:	34 34                	xor    $0x34,%al
  83:	34 34                	xor    $0x34,%al
  85:	34 34                	xor    $0x34,%al
  87:	34 34                	xor    $0x34,%al
  89:	34 34                	xor    $0x34,%al
  8b:	34 34                	xor    $0x34,%al
  8d:	34 34                	xor    $0x34,%al
  8f:	34 34                	xor    $0x34,%al
  91:	34 34                	xor    $0x34,%al
  93:	34 34                	xor    $0x34,%al
  95:	34 34                	xor    $0x34,%al
  97:	34 34                	xor    $0x34,%al
  99:	34 34                	xor    $0x34,%al
  9b:	34 34                	xor    $0x34,%al
  9d:	34 34                	xor    $0x34,%al
  9f:	34 34                	xor    $0x34,%al
  a1:	34 34                	xor    $0x34,%al
  a3:	34 34                	xor    $0x34,%al
  a5:	34 34                	xor    $0x34,%al
  a7:	34 34                	xor    $0x34,%al
  a9:	34 34                	xor    $0x34,%al
  ab:	34 34                	xor    $0x34,%al
  ad:	34 34                	xor    $0x34,%al
  af:	34                   	.byte 0x34
